; Function Attrs: mustprogress nofree norecurse nosync nounwind willreturn memory(read, inaccessiblemem: none) uwtable
define hidden noundef zeroext i1 @_ZNK11bv_rewriter22is_concat_split_targetEP4expr(ptr noundef nonnull readonly align 8 captures(none) dereferenceable(157) %0, ptr noundef readonly captures(none) %1) local_unnamed_addr #9 align 2 {
  %3 = getelementptr inbounds nuw i8, ptr %0, i64 150
  %4 = load i8, ptr %3, align 2, !tbaa !37, !range !52, !noundef !53
  %5 = trunc nuw i8 %4 to i1
  br i1 %5, label %_ZNK14bv_recognizers8is_bv_orEPK4expr.exit, label %6

6:                                                ; preds = %2
  %7 = getelementptr inbounds nuw i8, ptr %0, i64 8
  %8 = load i32, ptr %7, align 8, !tbaa !75
  %9 = getelementptr inbounds nuw i8, ptr %1, i64 4
  %10 = load i32, ptr %9, align 4
  %11 = and i32 %10, 65535
  %12 = icmp eq i32 %11, 0
  br i1 %12, label %13, label %_ZNK14bv_recognizers8is_bv_orEPK4expr.exit

13:                                               ; preds = %6
  %14 = getelementptr inbounds nuw i8, ptr %1, i64 16
  %15 = load ptr, ptr %14, align 8, !tbaa !78
  %16 = getelementptr inbounds nuw i8, ptr %15, i64 24
  %17 = load ptr, ptr %16, align 8, !tbaa !57
  %.not.i.i.i.i = icmp eq ptr %17, null
  br i1 %.not.i.i.i.i, label %_ZNK14bv_recognizers8is_bv_orEPK4expr.exit, label %_ZNK14bv_recognizers9is_concatEPK4expr.exit

_ZNK14bv_recognizers9is_concatEPK4expr.exit:      ; preds = %13
  %18 = load i32, ptr %17, align 8, !tbaa !82
  %19 = icmp eq i32 %18, %8
  %20 = getelementptr inbounds nuw i8, ptr %17, i64 4
  %21 = load i32, ptr %20, align 4
  %22 = icmp eq i32 %21, 37
  %23 = select i1 %19, i1 %22, i1 false
  br i1 %23, label %_ZNK14bv_recognizers8is_bv_orEPK4expr.exit, label %_ZNK14bv_recognizers10is_numeralEPK4expr.exit

_ZNK14bv_recognizers10is_numeralEPK4expr.exit:    ; preds = %_ZNK14bv_recognizers9is_concatEPK4expr.exit
  %24 = load i32, ptr %17, align 8, !tbaa !82
  %25 = icmp eq i32 %24, %8
  %26 = getelementptr inbounds nuw i8, ptr %17, i64 4
  %27 = load i32, ptr %26, align 4
  %28 = icmp eq i32 %27, 0
  %29 = select i1 %25, i1 %28, i1 false
  br i1 %29, label %_ZNK14bv_recognizers8is_bv_orEPK4expr.exit, label %.thread8

.thread8:                                         ; preds = %_ZNK14bv_recognizers10is_numeralEPK4expr.exit
  %30 = load i32, ptr %17, align 8, !tbaa !82
  %31 = icmp eq i32 %30, %8
  %32 = getelementptr inbounds nuw i8, ptr %17, i64 4
  %33 = load i32, ptr %32, align 4
  %34 = icmp eq i32 %33, 31
  %35 = select i1 %31, i1 %34, i1 false
  br label %_ZNK14bv_recognizers8is_bv_orEPK4expr.exit

_ZNK14bv_recognizers8is_bv_orEPK4expr.exit:       ; preds = %13, %.thread8, %6, %_ZNK14bv_recognizers10is_numeralEPK4expr.exit, %_ZNK14bv_recognizers9is_concatEPK4expr.exit, %2
  %36 = phi i1 [ true, %_ZNK14bv_recognizers10is_numeralEPK4expr.exit ], [ true, %_ZNK14bv_recognizers9is_concatEPK4expr.exit ], [ true, %2 ], [ %35, %.thread8 ], [ false, %6 ], [ false, %13 ]
  ret i1 %36
}